; Function Attrs: mustprogress nounwind uwtable
define dso_local void @_ZN4llvm4yaml5Input8setErrorEPNS0_4NodeERKNS_5TwineE(ptr noundef nonnull align 8 captures(none) dereferenceable(682) initializes((96, 100), (104, 112)) %0, ptr noundef %1, ptr noundef nonnull align 8 dereferenceable(34) %2) local_unnamed_addr #6 align 2 {
  %4 = getelementptr inbounds nuw i8, ptr %0, i64 80
  %5 = load ptr, ptr %4, align 8
  tail call void @_ZN4llvm4yaml6Stream10printErrorEPNS0_4NodeERKNS_5TwineENS_9SourceMgr8DiagKindE(ptr noundef nonnull align 8 dereferenceable(16) %5, ptr noundef %1, ptr noundef nonnull align 8 dereferenceable(34) %2, i32 noundef 0) #32
  %6 = tail call noundef nonnull align 8 dereferenceable(8) ptr @_ZNSt3_V216generic_categoryEv() #33
  %7 = getelementptr inbounds nuw i8, ptr %0, i64 96
  store i32 22, ptr %7, align 8
  %.sroa.21.0..sroa_idx = getelementptr inbounds nuw i8, ptr %0, i64 104
  store ptr %6, ptr %.sroa.21.0..sroa_idx, align 8
  ret void
}